(i__main__
TestingResult
p0
(dp1
S'results_train_err'
p2
cnumpy.core.multiarray
_reconstruct
p3
(cnumpy
ndarray
p4
(I0
tp5
S'b'
p6
tp7
Rp8
(I1
(I1
I1
tp9
cnumpy
dtype
p10
(S'f8'
p11
I0
I1
tp12
Rp13
(I3
S'<'
p14
NNNI-1
I-1
I0
tp15
bI00
S'\x00\x00\x00\x00\x00\x00\x00\x00'
p16
tp17
bsS'results_perceptron_test_err'
p18
g3
(g4
(I0
tp19
g6
tp20
Rp21
(I1
(I1
I1
tp22
g13
I00
S'XUUUUU\xb5?'
p23
tp24
bsS'results_perceptron_char_train_err'
p25
g3
(g4
(I0
tp26
g6
tp27
Rp28
(I1
(I1
I1
tp29
g13
I00
S'\x9e\xe7y\x9e\xe7y\xee?'
p30
tp31
bsS'perceptron_curves'
p32
(dp33
S'0.1'
p34
ccopy_reg
_reconstructor
p35
(cpandas.core.frame
DataFrame
p36
c__builtin__
object
p37
Ntp38
Rp39
(dp40
S'_metadata'
p41
(lp42
sS'_typ'
p43
S'dataframe'
p44
sS'_data'
p45
g35
(cpandas.core.internals
BlockManager
p46
g37
Ntp47
Rp48
((lp49
cpandas.indexes.base
_new_Index
p50
(cpandas.indexes.base
Index
p51
(dp52
S'data'
p53
g3
(g4
(I0
tp54
g6
tp55
Rp56
(I1
(I3
tp57
g10
(S'O8'
p58
I0
I1
tp59
Rp60
(I3
S'|'
p61
NNNI-1
I-1
I63
tp62
bI00
(lp63
S'char'
p64
aS'complex'
p65
aS'simple'
p66
atp67
bsS'name'
p68
Nstp69
Rp70
ag50
(cpandas.indexes.numeric
Int64Index
p71
(dp72
g53
g3
(g4
(I0
tp73
g6
tp74
Rp75
(I1
(I6
tp76
g10
(S'i8'
p77
I0
I1
tp78
Rp79
(I3
S'<'
p80
NNNI-1
I-1
I0
tp81
bI00
S'\x00\x00\x00\x00\x00\x00\x00\x00\xe8\x03\x00\x00\x00\x00\x00\x00\xd0\x07\x00\x00\x00\x00\x00\x00\xb8\x0b\x00\x00\x00\x00\x00\x00\xa0\x0f\x00\x00\x00\x00\x00\x00\xfa\x12\x00\x00\x00\x00\x00\x00'
p82
tp83
bsg68
Nstp84
Rp85
a(lp86
g3
(g4
(I0
tp87
g6
tp88
Rp89
(I1
(I3
I6
tp90
g13
I00
S"\xc2\x84\xfc@\x98\x90\xef?\xbal\x85\xc6\x14\x0e\xe7?\x98\xe6.\xf8\xab8\xe9?\xf28\x1c\x8f\xc3\xf1\xe8?\xa9\xb1\x87Y@\xbe\xe8?\x9e\xcc\x87t'\xf3\xe9?\\m\x0cMw\xb0\xef?tk~X\xa4\x0c\xcc?\x8cK\x86`\x1dm\xce?\x1c\x80\x95\xb5\xe5-\xca?`\xf7\xf9\xae-\xd3\xc3?\xd88q\xdd\x83\xaa\xc3?\xdb\xfa9\xb8\xb4\xad\xef?\x84%\xe6\x8a\xde\xd1\xd2?\xfcK36\x90v\xcb?\xdc\xefN\x01\xd7Y\xc6?\xc8\xab\xa7w\x96~\xc7?<+\xe4 \xd9\xd0\xc4?"
p91
tp92
ba(lp93
g50
(g51
(dp94
g53
g3
(g4
(I0
tp95
g6
tp96
Rp97
(I1
(I3
tp98
g60
I00
(lp99
g64
ag65
ag66
atp100
bsg68
Nstp101
Rp102
a(dp103
S'0.14.1'
p104
(dp105
S'axes'
p106
g49
sS'blocks'
p107
(lp108
(dp109
S'mgr_locs'
p110
c__builtin__
slice
p111
(I0
I3
I1
tp112
Rp113
sS'values'
p114
g89
sasstp115
bsbssS'results_perceptron_char_test_err'
p116
g3
(g4
(I0
tp117
g6
tp118
Rp119
(I1
(I1
I1
tp120
g13
I00
S'UUUUUU\xed?'
p121
tp122
bsS'results_sampled_err'
p123
g3
(g4
(I0
tp124
g6
tp125
Rp126
(I1
(I1
I1
tp127
g13
I00
S'\x00\x00\x00\x00\x00\x00\x00\x00'
p128
tp129
bsS'results_test_LL'
p130
g3
(g4
(I0
tp131
g6
tp132
Rp133
(I1
(I1
I1
tp134
g13
I00
S'\xf6\x1d\xa6\xe1\xb7ty\xc0'
p135
tp136
bsS'results_time'
p137
g3
(g4
(I0
tp138
g6
tp139
Rp140
(I1
(I1
I1
tp141
g13
I00
S'\x00\x00\x00\x00f>\xe1?'
p142
tp143
bsS'NUM_REPITIONS'
p144
I1
sS'results_train_LL'
p145
g3
(g4
(I0
tp146
g6
tp147
Rp148
(I1
(I1
I1
tp149
g13
I00
S'B\xb5o\xf9\xcd1c\xc0'
p150
tp151
bsS'results_perceptron_complex_train_err'
p152
g3
(g4
(I0
tp153
g6
tp154
Rp155
(I1
(I1
I1
tp156
g13
I00
S'\x18\x86a\x18\x86a\xb8?'
p157
tp158
bsS'results_perceptron_train_err'
p159
g3
(g4
(I0
tp160
g6
tp161
Rp162
(I1
(I1
I1
tp163
g13
I00
S' \x86a\x18\x86a\xa8?'
p164
tp165
bsS'TRAIN_DATA_PERCNTAGES'
p166
(lp167
F0.1
asS'results_perceptron_complex_test_err'
p168
g3
(g4
(I0
tp169
g6
tp170
Rp171
(I1
(I1
I1
tp172
g13
I00
S'\xaa\xaa\xaa\xaa\xaa\xaa\xd2?'
p173
tp174
bsS'results_test_err'
p175
g3
(g4
(I0
tp176
g6
tp177
Rp178
(I1
(I1
I1
tp179
g13
I00
S'XUUUUU\xb5?'
p180
tp181
bsb.